target datalayout = "e-m:e-p270:32:32-p271:32:32-p272:64:64-i64:64-i128:128-f80:128-n8:16:32:64-S128"
target triple = "x86_64-pc-linux-gnu"

%struct._lv_fragment_class_t = type { ptr, ptr, ptr, ptr, ptr, ptr, ptr, ptr, ptr, i64 }
%struct._lv_fragment_t = type { ptr, ptr, ptr, ptr }
%struct._lv_fragment_managed_states_t = type { ptr, ptr, ptr, ptr, i8, i8, i8 }

; Function Attrs: nounwind uwtable
define ptr @lv_fragment_create_obj(ptr noundef %0, ptr noundef %1) #0 {
  %3 = alloca ptr, align 8
  %4 = alloca ptr, align 8
  %5 = alloca ptr, align 8
  %6 = alloca ptr, align 8
  %7 = alloca ptr, align 8
  store ptr %0, ptr %3, align 8, !tbaa !3
  store ptr %1, ptr %4, align 8, !tbaa !3
  call void @llvm.lifetime.start.p0(i64 8, ptr %5) #3
  %8 = load ptr, ptr %3, align 8, !tbaa !3
  %9 = getelementptr inbounds nuw %struct._lv_fragment_t, ptr %8, i32 0, i32 1
  %10 = load ptr, ptr %9, align 8, !tbaa !15
  store ptr %10, ptr %5, align 8, !tbaa !3
  %11 = load ptr, ptr %5, align 8, !tbaa !3
  %12 = icmp ne ptr %11, null
  br i1 %12, label %13, label %16

13:                                               ; preds = %2
  %14 = load ptr, ptr %5, align 8, !tbaa !3
  %15 = getelementptr inbounds nuw %struct._lv_fragment_managed_states_t, ptr %14, i32 0, i32 5
  store i8 0, ptr %15, align 1, !tbaa !24
  br label %16

16:                                               ; preds = %13, %2
  call void @llvm.lifetime.start.p0(i64 8, ptr %6) #3
  %17 = load ptr, ptr %3, align 8, !tbaa !3
  %18 = getelementptr inbounds nuw %struct._lv_fragment_t, ptr %17, i32 0, i32 0
  %19 = load ptr, ptr %18, align 8, !tbaa !11
  store ptr %19, ptr %6, align 8, !tbaa !3
  call void @llvm.lifetime.start.p0(i64 8, ptr %7) #3
  %20 = load ptr, ptr %6, align 8, !tbaa !3
  %21 = getelementptr inbounds nuw %struct._lv_fragment_class_t, ptr %20, i32 0, i32 4
  %22 = load ptr, ptr %21, align 8, !tbaa !7
  %23 = load ptr, ptr %3, align 8, !tbaa !3
  %24 = load ptr, ptr %4, align 8, !tbaa !3
  %25 = call ptr %22(ptr noundef %23, ptr noundef %24)
  store ptr %25, ptr %7, align 8, !tbaa !3
  br label %26

26:                                               ; preds = %16
  %27 = load ptr, ptr %7, align 8, !tbaa !3
  %28 = icmp ne ptr %27, null
  br i1 %28, label %35, label %29

29:                                               ; preds = %26
  br label %30

30:                                               ; preds = %29
  br label %31

31:                                               ; preds = %30
  br label %32

32:                                               ; preds = %31
  br label %33

33:                                               ; preds = %34, %32
  br label %34

34:                                               ; preds = %33
  br label %33

35:                                               ; preds = %26
  br label %36

36:                                               ; preds = %35
  br label %37

37:                                               ; preds = %36
  %38 = load ptr, ptr %7, align 8, !tbaa !3
  %39 = load ptr, ptr %3, align 8, !tbaa !3
  %40 = getelementptr inbounds nuw %struct._lv_fragment_t, ptr %39, i32 0, i32 3
  store ptr %38, ptr %40, align 8, !tbaa !19
  %41 = load ptr, ptr %3, align 8, !tbaa !3
  %42 = getelementptr inbounds nuw %struct._lv_fragment_t, ptr %41, i32 0, i32 2
  %43 = load ptr, ptr %42, align 8, !tbaa !13
  call void @lv_fragment_manager_create_obj(ptr noundef %43)
  %44 = load ptr, ptr %5, align 8, !tbaa !3
  %45 = icmp ne ptr %44, null
  br i1 %45, label %46, label %51

46:                                               ; preds = %37
  %47 = load ptr, ptr %5, align 8, !tbaa !3
  %48 = getelementptr inbounds nuw %struct._lv_fragment_managed_states_t, ptr %47, i32 0, i32 4
  store i8 1, ptr %48, align 8, !tbaa !21
  %49 = load ptr, ptr %7, align 8, !tbaa !3
  %50 = call ptr @lv_obj_add_event_cb(ptr noundef %49, ptr noundef @cb_delete_assertion, i32 noundef 41, ptr noundef null)
  br label %51

51:                                               ; preds = %46, %37
  %52 = load ptr, ptr %6, align 8, !tbaa !3
  %53 = getelementptr inbounds nuw %struct._lv_fragment_class_t, ptr %52, i32 0, i32 5
  %54 = load ptr, ptr %53, align 8, !tbaa !33
  %55 = icmp ne ptr %54, null
  br i1 %55, label %56, label %62

56:                                               ; preds = %51
  %57 = load ptr, ptr %6, align 8, !tbaa !3
  %58 = getelementptr inbounds nuw %struct._lv_fragment_class_t, ptr %57, i32 0, i32 5
  %59 = load ptr, ptr %58, align 8, !tbaa !33
  %60 = load ptr, ptr %3, align 8, !tbaa !3
  %61 = load ptr, ptr %7, align 8, !tbaa !3
  call void %59(ptr noundef %60, ptr noundef %61)
  br label %62

62:                                               ; preds = %56, %51
  %63 = load ptr, ptr %7, align 8, !tbaa !3
  call void @llvm.lifetime.end.p0(i64 8, ptr %7) #3
  call void @llvm.lifetime.end.p0(i64 8, ptr %6) #3
  call void @llvm.lifetime.end.p0(i64 8, ptr %5) #3
  ret ptr %63
}