; Function Attrs: nounwind uwtable
define nonnull ptr @lv_fragment_create_obj(ptr noundef %0, ptr noundef %1) local_unnamed_addr #0 {
  %3 = getelementptr inbounds nuw i8, ptr %0, i64 8
  %4 = load ptr, ptr %3, align 8, !tbaa !14
  %.not = icmp eq ptr %4, null
  br i1 %.not, label %7, label %5

5:                                                ; preds = %2
  %6 = getelementptr inbounds nuw i8, ptr %4, i64 33
  store i8 0, ptr %6, align 1, !tbaa !23
  br label %7

7:                                                ; preds = %5, %2
  %8 = load ptr, ptr %0, align 8, !tbaa !10
  %9 = getelementptr inbounds nuw i8, ptr %8, i64 32
  %10 = load ptr, ptr %9, align 8, !tbaa !3
  %11 = tail call ptr %10(ptr noundef nonnull %0, ptr noundef %1) #4
  %.not21 = icmp eq ptr %11, null
  br i1 %.not21, label %.preheader, label %12

.preheader:                                       ; preds = %7, %.preheader
  br label %.preheader

12:                                               ; preds = %7
  %13 = getelementptr inbounds nuw i8, ptr %0, i64 24
  store ptr %11, ptr %13, align 8, !tbaa !18
  %14 = getelementptr inbounds nuw i8, ptr %0, i64 16
  %15 = load ptr, ptr %14, align 8, !tbaa !12
  tail call void @lv_fragment_manager_create_obj(ptr noundef %15) #4
  br i1 %.not, label %19, label %16

16:                                               ; preds = %12
  %17 = getelementptr inbounds nuw i8, ptr %4, i64 32
  store i8 1, ptr %17, align 8, !tbaa !20
  %18 = tail call ptr @lv_obj_add_event_cb(ptr noundef nonnull %11, ptr noundef nonnull @cb_delete_assertion, i32 noundef 41, ptr noundef null) #4
  br label %19

19:                                               ; preds = %16, %12
  %20 = getelementptr inbounds nuw i8, ptr %8, i64 40
  %21 = load ptr, ptr %20, align 8, !tbaa !29
  %.not22 = icmp eq ptr %21, null
  br i1 %.not22, label %23, label %22

22:                                               ; preds = %19
  tail call void %21(ptr noundef nonnull %0, ptr noundef nonnull %11) #4
  br label %23

23:                                               ; preds = %22, %19
  ret ptr %11
}